; ModuleID = '28/1822.c'
source_filename = "28/1822.c"
target datalayout = "e-m:e-p270:32:32-p271:32:32-p272:64:64-i64:64-f80:128-n8:16:32:64-S128"
target triple = "x86_64-pc-linux-gnu"

@.str = private unnamed_addr constant [3 x i8] c"%d\00", align 1
@.str.1 = private unnamed_addr constant [4 x i8] c",%d\00", align 1

; Function Attrs: noinline nounwind uwtable
define dso_local i32 @main() #0 {
  %1 = alloca i32, align 4
  %2 = alloca [5000 x i8], align 16
  %3 = alloca i32, align 4
  %4 = alloca i32, align 4
  %5 = alloca i32, align 4
  %6 = alloca i32, align 4
  %7 = alloca [300 x i32], align 16
  store i32 0, i32* %1, align 4
  %8 = bitcast [300 x i32]* %7 to i8*
  call void @llvm.memset.p0i8.i64(i8* align 16 %8, i8 0, i64 1200, i1 false)
  %9 = getelementptr inbounds [5000 x i8], [5000 x i8]* %2, i64 0, i64 0
  %10 = call i32 (i8*, ...) bitcast (i32 (...)* @gets to i32 (i8*, ...)*)(i8* %9)
  %11 = getelementptr inbounds [5000 x i8], [5000 x i8]* %2, i64 0, i64 0
  %12 = call i64 @strlen(i8* %11) #4
  %13 = trunc i64 %12 to i32
  store i32 %13, i32* %5, align 4
  store i32 0, i32* %4, align 4
  store i32 0, i32* %6, align 4
  store i32 0, i32* %3, align 4
  br label %14

14:                                               ; preds = %39, %0
  %15 = load i32, i32* %3, align 4
  %16 = load i32, i32* %5, align 4
  %17 = icmp slt i32 %15, %16
  br i1 %17, label %18, label %42

18:                                               ; preds = %14
  %19 = load i32, i32* %3, align 4
  %20 = sext i32 %19 to i64
  %21 = getelementptr inbounds [5000 x i8], [5000 x i8]* %2, i64 0, i64 %20
  %22 = load i8, i8* %21, align 1
  %23 = sext i8 %22 to i32
  %24 = icmp ne i32 %23, 32
  br i1 %24, label %25, label %31

25:                                               ; preds = %18
  %26 = load i32, i32* %4, align 4
  %27 = sext i32 %26 to i64
  %28 = getelementptr inbounds [300 x i32], [300 x i32]* %7, i64 0, i64 %27
  %29 = load i32, i32* %28, align 4
  %30 = add nsw i32 %29, 1
  store i32 %30, i32* %28, align 4
  store i32 0, i32* %6, align 4
  br label %38

31:                                               ; preds = %18
  %32 = load i32, i32* %6, align 4
  %33 = icmp eq i32 %32, 0
  br i1 %33, label %34, label %37

34:                                               ; preds = %31
  %35 = load i32, i32* %4, align 4
  %36 = add nsw i32 %35, 1
  store i32 %36, i32* %4, align 4
  store i32 1, i32* %6, align 4
  br label %37

37:                                               ; preds = %34, %31
  br label %38

38:                                               ; preds = %37, %25
  br label %39

39:                                               ; preds = %38
  %40 = load i32, i32* %3, align 4
  %41 = add nsw i32 %40, 1
  store i32 %41, i32* %3, align 4
  br label %14

42:                                               ; preds = %14
  %43 = getelementptr inbounds [300 x i32], [300 x i32]* %7, i64 0, i64 0
  %44 = load i32, i32* %43, align 16
  %45 = call i32 (i8*, ...) @printf(i8* getelementptr inbounds ([3 x i8], [3 x i8]* @.str, i64 0, i64 0), i32 %44)
  store i32 1, i32* %3, align 4
  br label %46

46:                                               ; preds = %56, %42
  %47 = load i32, i32* %3, align 4
  %48 = load i32, i32* %4, align 4
  %49 = icmp sle i32 %47, %48
  br i1 %49, label %50, label %59

50:                                               ; preds = %46
  %51 = load i32, i32* %3, align 4
  %52 = sext i32 %51 to i64
  %53 = getelementptr inbounds [300 x i32], [300 x i32]* %7, i64 0, i64 %52
  %54 = load i32, i32* %53, align 4
  %55 = call i32 (i8*, ...) @printf(i8* getelementptr inbounds ([4 x i8], [4 x i8]* @.str.1, i64 0, i64 0), i32 %54)
  br label %56

56:                                               ; preds = %50
  %57 = load i32, i32* %3, align 4
  %58 = add nsw i32 %57, 1
  store i32 %58, i32* %3, align 4
  br label %46

59:                                               ; preds = %46
  ret i32 0
}

; Function Attrs: argmemonly nounwind willreturn
declare void @llvm.memset.p0i8.i64(i8* nocapture writeonly, i8, i64, i1 immarg) #1

declare dso_local i32 @gets(...) #2

; Function Attrs: nounwind readonly
declare dso_local i64 @strlen(i8*) #3

declare dso_local i32 @printf(i8*, ...) #2


!llvm.module.flags = !{!0}
!llvm.ident = !{!1}

!0 = !{i32 1, !"wchar_size", i32 4}
!1 = !{!"clang version 10.0.0-4ubuntu1 "}
