; ModuleID = 'source-C-CXX/27/1822.c'
source_filename = "source-C-CXX/27/1822.c"
target datalayout = "e-m:e-p270:32:32-p271:32:32-p272:64:64-i64:64-f80:128-n8:16:32:64-S128"
target triple = "x86_64-pc-linux-gnu"

@.str = private unnamed_addr constant [3 x i8] c"%d\00", align 1
@.str.1 = private unnamed_addr constant [4 x i8] c",%d\00", align 1

; Function Attrs: nounwind sspstrong uwtable
define dso_local i32 @main() local_unnamed_addr #0 {
  %1 = alloca [5000 x i8], align 16
  %2 = alloca [300 x i32], align 16
  %3 = getelementptr inbounds [5000 x i8], [5000 x i8]* %1, i64 0, i64 0
  call void @llvm.lifetime.start.p0i8(i64 5000, i8* nonnull %3) #6
  %4 = bitcast [300 x i32]* %2 to i8*
  call void @llvm.lifetime.start.p0i8(i64 1200, i8* nonnull %4) #6
  call void @llvm.memset.p0i8.i64(i8* noundef nonnull align 16 dereferenceable(1200) %4, i8 0, i64 1200, i1 false)
  %5 = call i32 (i8*, ...) bitcast (i32 (...)* @gets to i32 (i8*, ...)*)(i8* nonnull %3) #6
  %6 = call i64 @strlen(i8* noundef nonnull %3) #7
  %7 = trunc i64 %6 to i32
  %8 = icmp sgt i32 %7, 0
  br i1 %8, label %11, label %9

9:                                                ; preds = %0
  %10 = call i32 (i8*, ...) @printf(i8* nonnull dereferenceable(1) getelementptr inbounds ([3 x i8], [3 x i8]* @.str, i64 0, i64 0), i32 0)
  br label %49

11:                                               ; preds = %0
  %12 = and i64 %6, 4294967295
  br label %13

13:                                               ; preds = %11, %29
  %14 = phi i64 [ 0, %11 ], [ %32, %29 ]
  %15 = phi i32 [ 0, %11 ], [ %31, %29 ]
  %16 = phi i32 [ 0, %11 ], [ %30, %29 ]
  %17 = getelementptr inbounds [5000 x i8], [5000 x i8]* %1, i64 0, i64 %14
  %18 = load i8, i8* %17, align 1, !tbaa !5
  %19 = icmp eq i8 %18, 32
  br i1 %19, label %25, label %20

20:                                               ; preds = %13
  %21 = sext i32 %16 to i64
  %22 = getelementptr inbounds [300 x i32], [300 x i32]* %2, i64 0, i64 %21
  %23 = load i32, i32* %22, align 4, !tbaa !8
  %24 = add nsw i32 %23, 1
  store i32 %24, i32* %22, align 4, !tbaa !8
  br label %29

25:                                               ; preds = %13
  %26 = icmp eq i32 %15, 0
  %27 = zext i1 %26 to i32
  %28 = add nsw i32 %16, %27
  br label %29

29:                                               ; preds = %25, %20
  %30 = phi i32 [ %16, %20 ], [ %28, %25 ]
  %31 = phi i32 [ 0, %20 ], [ 1, %25 ]
  %32 = add nuw nsw i64 %14, 1
  %33 = icmp eq i64 %32, %12
  br i1 %33, label %34, label %13, !llvm.loop !10

34:                                               ; preds = %29
  %35 = getelementptr inbounds [300 x i32], [300 x i32]* %2, i64 0, i64 0
  %36 = load i32, i32* %35, align 16, !tbaa !8
  %37 = call i32 (i8*, ...) @printf(i8* nonnull dereferenceable(1) getelementptr inbounds ([3 x i8], [3 x i8]* @.str, i64 0, i64 0), i32 %36)
  %38 = icmp slt i32 %30, 1
  br i1 %38, label %49, label %39

39:                                               ; preds = %34
  %40 = add nuw i32 %30, 1
  %41 = zext i32 %40 to i64
  br label %42

42:                                               ; preds = %39, %42
  %43 = phi i64 [ 1, %39 ], [ %47, %42 ]
  %44 = getelementptr inbounds [300 x i32], [300 x i32]* %2, i64 0, i64 %43
  %45 = load i32, i32* %44, align 4, !tbaa !8
  %46 = call i32 (i8*, ...) @printf(i8* nonnull dereferenceable(1) getelementptr inbounds ([4 x i8], [4 x i8]* @.str.1, i64 0, i64 0), i32 %45)
  %47 = add nuw nsw i64 %43, 1
  %48 = icmp eq i64 %47, %41
  br i1 %48, label %49, label %42, !llvm.loop !12

49:                                               ; preds = %42, %9, %34
  call void @llvm.lifetime.end.p0i8(i64 1200, i8* nonnull %4) #6
  call void @llvm.lifetime.end.p0i8(i64 5000, i8* nonnull %3) #6
  ret i32 0
}

; Function Attrs: argmemonly mustprogress nofree nosync nounwind willreturn
declare void @llvm.lifetime.start.p0i8(i64 immarg, i8* nocapture) #1

; Function Attrs: argmemonly mustprogress nofree nounwind willreturn writeonly
declare void @llvm.memset.p0i8.i64(i8* nocapture writeonly, i8, i64, i1 immarg) #2

declare i32 @gets(...) local_unnamed_addr #3

; Function Attrs: argmemonly mustprogress nofree nounwind readonly willreturn
declare i64 @strlen(i8* nocapture) local_unnamed_addr #4

; Function Attrs: nofree nounwind
declare noundef i32 @printf(i8* nocapture noundef readonly, ...) local_unnamed_addr #5

; Function Attrs: argmemonly mustprogress nofree nosync nounwind willreturn
declare void @llvm.lifetime.end.p0i8(i64 immarg, i8* nocapture) #1


!llvm.module.flags = !{!0, !1, !2, !3}
!llvm.ident = !{!4}

!0 = !{i32 1, !"wchar_size", i32 4}
!1 = !{i32 7, !"PIC Level", i32 2}
!2 = !{i32 7, !"PIE Level", i32 2}
!3 = !{i32 7, !"uwtable", i32 1}
!4 = !{!"clang version 13.0.0"}
!5 = !{!6, !6, i64 0}
!6 = !{!"omnipotent char", !7, i64 0}
!7 = !{!"Simple C/C++ TBAA"}
!8 = !{!9, !9, i64 0}
!9 = !{!"int", !6, i64 0}
!10 = distinct !{!10, !11}
!11 = !{!"llvm.loop.mustprogress"}
!12 = distinct !{!12, !11}
